; ModuleID = '17/1439.c'
source_filename = "17/1439.c"
target datalayout = "e-m:e-p270:32:32-p271:32:32-p272:64:64-i64:64-f80:128-n8:16:32:64-S128"
target triple = "x86_64-pc-linux-gnu"

@num = common dso_local global i32 0, align 4
@.str = private unnamed_addr constant [3 x i8] c"%d\00", align 1
@.str.1 = private unnamed_addr constant [3 x i8] c"%c\00", align 1
@.str.2 = private unnamed_addr constant [2 x i8] c"\0A\00", align 1

; Function Attrs: noinline nounwind uwtable
define dso_local signext i8 @right(i8 signext %0) #0 {
  %2 = alloca i8, align 1
  %3 = alloca i8, align 1
  store i8 %0, i8* %2, align 1
  %4 = load i8, i8* %2, align 1
  %5 = sext i8 %4 to i32
  %6 = icmp ne i32 %5, 40
  br i1 %6, label %7, label %12

7:                                                ; preds = %1
  %8 = load i8, i8* %2, align 1
  %9 = sext i8 %8 to i32
  %10 = icmp ne i32 %9, 41
  br i1 %10, label %11, label %12

11:                                               ; preds = %7
  store i8 32, i8* %3, align 1
  br label %29

12:                                               ; preds = %7, %1
  %13 = load i8, i8* %2, align 1
  %14 = sext i8 %13 to i32
  %15 = icmp eq i32 %14, 41
  br i1 %15, label %16, label %24

16:                                               ; preds = %12
  %17 = load i32, i32* @num, align 4
  %18 = icmp eq i32 %17, 0
  br i1 %18, label %19, label %20

19:                                               ; preds = %16
  store i8 63, i8* %3, align 1
  br label %23

20:                                               ; preds = %16
  %21 = load i32, i32* @num, align 4
  %22 = add nsw i32 %21, -1
  store i32 %22, i32* @num, align 4
  store i8 32, i8* %3, align 1
  br label %23

23:                                               ; preds = %20, %19
  br label %28

24:                                               ; preds = %12
  %25 = load i32, i32* @num, align 4
  %26 = add nsw i32 %25, 1
  store i32 %26, i32* @num, align 4
  %27 = load i8, i8* %2, align 1
  store i8 %27, i8* %3, align 1
  br label %28

28:                                               ; preds = %24, %23
  br label %29

29:                                               ; preds = %28, %11
  %30 = load i8, i8* %3, align 1
  ret i8 %30
}

; Function Attrs: noinline nounwind uwtable
define dso_local signext i8 @left(i8 signext %0, i8 signext %1) #0 {
  %3 = alloca i8, align 1
  %4 = alloca i8, align 1
  %5 = alloca i8, align 1
  store i8 %0, i8* %3, align 1
  store i8 %1, i8* %4, align 1
  %6 = load i8, i8* %4, align 1
  %7 = sext i8 %6 to i32
  %8 = icmp eq i32 %7, 32
  br i1 %8, label %13, label %9

9:                                                ; preds = %2
  %10 = load i8, i8* %4, align 1
  %11 = sext i8 %10 to i32
  %12 = icmp eq i32 %11, 63
  br i1 %12, label %13, label %22

13:                                               ; preds = %9, %2
  %14 = load i8, i8* %4, align 1
  store i8 %14, i8* %5, align 1
  %15 = load i8, i8* %3, align 1
  %16 = sext i8 %15 to i32
  %17 = icmp eq i32 %16, 41
  br i1 %17, label %18, label %21

18:                                               ; preds = %13
  %19 = load i32, i32* @num, align 4
  %20 = add nsw i32 %19, 1
  store i32 %20, i32* @num, align 4
  br label %21

21:                                               ; preds = %18, %13
  br label %30

22:                                               ; preds = %9
  %23 = load i32, i32* @num, align 4
  %24 = icmp eq i32 %23, 0
  br i1 %24, label %25, label %26

25:                                               ; preds = %22
  store i8 36, i8* %5, align 1
  br label %29

26:                                               ; preds = %22
  %27 = load i32, i32* @num, align 4
  %28 = add nsw i32 %27, -1
  store i32 %28, i32* @num, align 4
  store i8 32, i8* %5, align 1
  br label %29

29:                                               ; preds = %26, %25
  br label %30

30:                                               ; preds = %29, %21
  %31 = load i8, i8* %5, align 1
  ret i8 %31
}

; Function Attrs: noinline nounwind uwtable
define dso_local i32 @main() #0 {
  %1 = alloca i32, align 4
  %2 = alloca i32, align 4
  %3 = alloca i32, align 4
  %4 = alloca [101 x i8], align 16
  %5 = alloca [101 x i8], align 16
  store i32 0, i32* %1, align 4
  %6 = call i32 (i8*, ...) @__isoc99_scanf(i8* getelementptr inbounds ([3 x i8], [3 x i8]* @.str, i64 0, i64 0), i32* %3)
  br label %7

7:                                                ; preds = %73, %0
  %8 = getelementptr inbounds [101 x i8], [101 x i8]* %4, i64 0, i64 0
  %9 = call i32 (i8*, ...) bitcast (i32 (...)* @gets to i32 (i8*, ...)*)(i8* %8)
  %10 = icmp ne i32 %9, 0
  br i1 %10, label %11, label %75

11:                                               ; preds = %7
  store i32 0, i32* @num, align 4
  store i32 0, i32* %2, align 4
  br label %12

12:                                               ; preds = %27, %11
  %13 = load i32, i32* %2, align 4
  %14 = sext i32 %13 to i64
  %15 = getelementptr inbounds [101 x i8], [101 x i8]* %4, i64 0, i64 0
  %16 = call i64 @strlen(i8* %15) #3
  %17 = icmp ult i64 %14, %16
  br i1 %17, label %18, label %30

18:                                               ; preds = %12
  %19 = load i32, i32* %2, align 4
  %20 = sext i32 %19 to i64
  %21 = getelementptr inbounds [101 x i8], [101 x i8]* %4, i64 0, i64 %20
  %22 = load i8, i8* %21, align 1
  %23 = call signext i8 @right(i8 signext %22)
  %24 = load i32, i32* %2, align 4
  %25 = sext i32 %24 to i64
  %26 = getelementptr inbounds [101 x i8], [101 x i8]* %5, i64 0, i64 %25
  store i8 %23, i8* %26, align 1
  br label %27

27:                                               ; preds = %18
  %28 = load i32, i32* %2, align 4
  %29 = add nsw i32 %28, 1
  store i32 %29, i32* %2, align 4
  br label %12

30:                                               ; preds = %12
  store i32 0, i32* @num, align 4
  %31 = getelementptr inbounds [101 x i8], [101 x i8]* %4, i64 0, i64 0
  %32 = call i64 @strlen(i8* %31) #3
  %33 = sub i64 %32, 1
  %34 = trunc i64 %33 to i32
  store i32 %34, i32* %2, align 4
  br label %35

35:                                               ; preds = %51, %30
  %36 = load i32, i32* %2, align 4
  %37 = icmp sge i32 %36, 0
  br i1 %37, label %38, label %54

38:                                               ; preds = %35
  %39 = load i32, i32* %2, align 4
  %40 = sext i32 %39 to i64
  %41 = getelementptr inbounds [101 x i8], [101 x i8]* %4, i64 0, i64 %40
  %42 = load i8, i8* %41, align 1
  %43 = load i32, i32* %2, align 4
  %44 = sext i32 %43 to i64
  %45 = getelementptr inbounds [101 x i8], [101 x i8]* %5, i64 0, i64 %44
  %46 = load i8, i8* %45, align 1
  %47 = call signext i8 @left(i8 signext %42, i8 signext %46)
  %48 = load i32, i32* %2, align 4
  %49 = sext i32 %48 to i64
  %50 = getelementptr inbounds [101 x i8], [101 x i8]* %5, i64 0, i64 %49
  store i8 %47, i8* %50, align 1
  br label %51

51:                                               ; preds = %38
  %52 = load i32, i32* %2, align 4
  %53 = add nsw i32 %52, -1
  store i32 %53, i32* %2, align 4
  br label %35

54:                                               ; preds = %35
  %55 = getelementptr inbounds [101 x i8], [101 x i8]* %4, i64 0, i64 0
  %56 = call i32 @puts(i8* %55)
  store i32 0, i32* %2, align 4
  br label %57

57:                                               ; preds = %70, %54
  %58 = load i32, i32* %2, align 4
  %59 = sext i32 %58 to i64
  %60 = getelementptr inbounds [101 x i8], [101 x i8]* %4, i64 0, i64 0
  %61 = call i64 @strlen(i8* %60) #3
  %62 = icmp ult i64 %59, %61
  br i1 %62, label %63, label %73

63:                                               ; preds = %57
  %64 = load i32, i32* %2, align 4
  %65 = sext i32 %64 to i64
  %66 = getelementptr inbounds [101 x i8], [101 x i8]* %5, i64 0, i64 %65
  %67 = load i8, i8* %66, align 1
  %68 = sext i8 %67 to i32
  %69 = call i32 (i8*, ...) @printf(i8* getelementptr inbounds ([3 x i8], [3 x i8]* @.str.1, i64 0, i64 0), i32 %68)
  br label %70

70:                                               ; preds = %63
  %71 = load i32, i32* %2, align 4
  %72 = add nsw i32 %71, 1
  store i32 %72, i32* %2, align 4
  br label %57

73:                                               ; preds = %57
  %74 = call i32 (i8*, ...) @printf(i8* getelementptr inbounds ([2 x i8], [2 x i8]* @.str.2, i64 0, i64 0))
  br label %7

75:                                               ; preds = %7
  ret i32 0
}

declare dso_local i32 @__isoc99_scanf(i8*, ...) #1

declare dso_local i32 @gets(...) #1

; Function Attrs: nounwind readonly
declare dso_local i64 @strlen(i8*) #2

declare dso_local i32 @puts(i8*) #1

declare dso_local i32 @printf(i8*, ...) #1


!llvm.module.flags = !{!0}
!llvm.ident = !{!1}

!0 = !{i32 1, !"wchar_size", i32 4}
!1 = !{!"clang version 10.0.0-4ubuntu1 "}
